target datalayout = "e-m:e-p270:32:32-p271:32:32-p272:64:64-i64:64-i128:128-f80:128-n8:16:32:64-S128"
target triple = "x86_64-pc-linux-gnu"

%struct.lzma_next_coder_s = type { ptr, i64, i64, ptr, ptr, ptr, ptr, ptr, ptr, ptr }
%struct.lzma_stream_coder = type { i32, %struct.lzma_next_coder_s, %struct.lzma_block, %struct.lzma_stream_flags, ptr, i64, i64, i8, i8, i8, i8, i8, i8, i64, [1024 x i8] }
%struct.lzma_block = type { i32, i32, i32, i64, i64, ptr, [64 x i8], ptr, ptr, ptr, i32, i32, i64, i64, i64, i64, i64, i64, i32, i32, i32, i32, i8, i8, i8, i8, i8, i8, i8, i8 }
%struct.lzma_stream_flags = type { i32, i64, i32, i32, i32, i32, i32, i8, i8, i8, i8, i8, i8, i8, i8, i32, i32 }

; Function Attrs: nounwind uwtable
define internal i32 @stream_decoder_reset(ptr noundef %0, ptr noundef %1) #0 {
  %3 = alloca i32, align 4
  %4 = alloca ptr, align 8
  %5 = alloca ptr, align 8
  store ptr %0, ptr %4, align 8, !tbaa !9
  store ptr %1, ptr %5, align 8, !tbaa !9
  %6 = load ptr, ptr %4, align 8, !tbaa !9
  %7 = getelementptr inbounds nuw %struct.lzma_stream_coder, ptr %6, i32 0, i32 4
  %8 = load ptr, ptr %7, align 8, !tbaa !23
  %9 = load ptr, ptr %5, align 8, !tbaa !9
  %10 = call ptr @lzma_index_hash_init(ptr noundef %8, ptr noundef %9) #8
  %11 = load ptr, ptr %4, align 8, !tbaa !9
  %12 = getelementptr inbounds nuw %struct.lzma_stream_coder, ptr %11, i32 0, i32 4
  store ptr %10, ptr %12, align 8, !tbaa !23
  %13 = load ptr, ptr %4, align 8, !tbaa !9
  %14 = getelementptr inbounds nuw %struct.lzma_stream_coder, ptr %13, i32 0, i32 4
  %15 = load ptr, ptr %14, align 8, !tbaa !23
  %16 = icmp eq ptr %15, null
  br i1 %16, label %17, label %18

17:                                               ; preds = %2
  store i32 5, ptr %3, align 4
  br label %23

18:                                               ; preds = %2
  %19 = load ptr, ptr %4, align 8, !tbaa !9
  %20 = getelementptr inbounds nuw %struct.lzma_stream_coder, ptr %19, i32 0, i32 0
  store i32 0, ptr %20, align 8, !tbaa !41
  %21 = load ptr, ptr %4, align 8, !tbaa !9
  %22 = getelementptr inbounds nuw %struct.lzma_stream_coder, ptr %21, i32 0, i32 13
  store i64 0, ptr %22, align 8, !tbaa !42
  store i32 0, ptr %3, align 4
  br label %23

23:                                               ; preds = %18, %17
  %24 = load i32, ptr %3, align 4
  ret i32 %24
}

; Function Attrs: nounwind uwtable
define dso_local i32 @lzma_stream_decoder_init(ptr noundef %0, ptr noundef %1, i64 noundef %2, i32 noundef %3) #0 {
  %5 = alloca i32, align 4
  %6 = alloca ptr, align 8
  %7 = alloca ptr, align 8
  %8 = alloca i64, align 8
  %9 = alloca i32, align 4
  %10 = alloca ptr, align 8
  %11 = alloca i32, align 4
  %12 = alloca %struct.lzma_next_coder_s, align 8
  store ptr %0, ptr %6, align 8, !tbaa !4
  store ptr %1, ptr %7, align 8, !tbaa !9
  store i64 %2, ptr %8, align 8, !tbaa !10
  store i32 %3, ptr %9, align 4, !tbaa !12
  br label %13

13:                                               ; preds = %4
  %14 = load ptr, ptr %6, align 8, !tbaa !4
  %15 = getelementptr inbounds nuw %struct.lzma_next_coder_s, ptr %14, i32 0, i32 2
  %16 = load i64, ptr %15, align 8, !tbaa !14
  %17 = icmp ne i64 ptrtoint (ptr @lzma_stream_decoder_init to i64), %16
  br i1 %17, label %18, label %21

18:                                               ; preds = %13
  %19 = load ptr, ptr %6, align 8, !tbaa !4
  %20 = load ptr, ptr %7, align 8, !tbaa !9
  call void @lzma_next_end(ptr noundef %19, ptr noundef %20)
  br label %21

21:                                               ; preds = %18, %13
  %22 = load ptr, ptr %6, align 8, !tbaa !4
  %23 = getelementptr inbounds nuw %struct.lzma_next_coder_s, ptr %22, i32 0, i32 2
  store i64 ptrtoint (ptr @lzma_stream_decoder_init to i64), ptr %23, align 8, !tbaa !14
  br label %24

24:                                               ; preds = %21
  %25 = load i32, ptr %9, align 4, !tbaa !12
  %26 = and i32 %25, -64
  %27 = icmp ne i32 %26, 0
  br i1 %27, label %28, label %29

28:                                               ; preds = %24
  store i32 8, ptr %5, align 4
  br label %106

29:                                               ; preds = %24
  call void @llvm.lifetime.start.p0(i64 8, ptr %10) #8
  %30 = load ptr, ptr %6, align 8, !tbaa !4
  %31 = getelementptr inbounds nuw %struct.lzma_next_coder_s, ptr %30, i32 0, i32 0
  %32 = load ptr, ptr %31, align 8, !tbaa !16
  store ptr %32, ptr %10, align 8, !tbaa !9
  %33 = load ptr, ptr %10, align 8, !tbaa !9
  %34 = icmp eq ptr %33, null
  br i1 %34, label %35, label %58

35:                                               ; preds = %29
  %36 = load ptr, ptr %7, align 8, !tbaa !9
  %37 = call ptr @lzma_alloc(i64 noundef 1416, ptr noundef %36)
  store ptr %37, ptr %10, align 8, !tbaa !9
  %38 = load ptr, ptr %10, align 8, !tbaa !9
  %39 = icmp eq ptr %38, null
  br i1 %39, label %40, label %41

40:                                               ; preds = %35
  store i32 5, ptr %5, align 4
  store i32 1, ptr %11, align 4
  br label %105

41:                                               ; preds = %35
  %42 = load ptr, ptr %10, align 8, !tbaa !9
  %43 = load ptr, ptr %6, align 8, !tbaa !4
  %44 = getelementptr inbounds nuw %struct.lzma_next_coder_s, ptr %43, i32 0, i32 0
  store ptr %42, ptr %44, align 8, !tbaa !16
  %45 = load ptr, ptr %6, align 8, !tbaa !4
  %46 = getelementptr inbounds nuw %struct.lzma_next_coder_s, ptr %45, i32 0, i32 3
  store ptr @stream_decode, ptr %46, align 8, !tbaa !17
  %47 = load ptr, ptr %6, align 8, !tbaa !4
  %48 = getelementptr inbounds nuw %struct.lzma_next_coder_s, ptr %47, i32 0, i32 4
  store ptr @stream_decoder_end, ptr %48, align 8, !tbaa !18
  %49 = load ptr, ptr %6, align 8, !tbaa !4
  %50 = getelementptr inbounds nuw %struct.lzma_next_coder_s, ptr %49, i32 0, i32 6
  store ptr @stream_decoder_get_check, ptr %50, align 8, !tbaa !19
  %51 = load ptr, ptr %6, align 8, !tbaa !4
  %52 = getelementptr inbounds nuw %struct.lzma_next_coder_s, ptr %51, i32 0, i32 7
  store ptr @stream_decoder_memconfig, ptr %52, align 8, !tbaa !20
  %53 = load ptr, ptr %10, align 8, !tbaa !9
  %54 = getelementptr inbounds nuw %struct.lzma_stream_coder, ptr %53, i32 0, i32 1
  call void @llvm.memset.p0.i64(ptr align 8 %12, i8 0, i64 80, i1 false)
  %55 = getelementptr inbounds nuw %struct.lzma_next_coder_s, ptr %12, i32 0, i32 1
  store i64 -1, ptr %55, align 8, !tbaa !21
  call void @llvm.memcpy.p0.p0.i64(ptr align 8 %54, ptr align 8 %12, i64 80, i1 false), !tbaa.struct !22
  %56 = load ptr, ptr %10, align 8, !tbaa !9
  %57 = getelementptr inbounds nuw %struct.lzma_stream_coder, ptr %56, i32 0, i32 4
  store ptr null, ptr %57, align 8, !tbaa !23
  br label %58

58:                                               ; preds = %41, %29
  %59 = load i64, ptr %8, align 8, !tbaa !10
  %60 = icmp ugt i64 1, %59
  br i1 %60, label %61, label %62

61:                                               ; preds = %58
  br label %64

62:                                               ; preds = %58
  %63 = load i64, ptr %8, align 8, !tbaa !10
  br label %64

64:                                               ; preds = %62, %61
  %65 = phi i64 [ 1, %61 ], [ %63, %62 ]
  %66 = load ptr, ptr %10, align 8, !tbaa !9
  %67 = getelementptr inbounds nuw %struct.lzma_stream_coder, ptr %66, i32 0, i32 5
  store i64 %65, ptr %67, align 8, !tbaa !29
  %68 = load ptr, ptr %10, align 8, !tbaa !9
  %69 = getelementptr inbounds nuw %struct.lzma_stream_coder, ptr %68, i32 0, i32 6
  store i64 32768, ptr %69, align 8, !tbaa !30
  %70 = load i32, ptr %9, align 4, !tbaa !12
  %71 = and i32 %70, 1
  %72 = icmp ne i32 %71, 0
  %73 = load ptr, ptr %10, align 8, !tbaa !9
  %74 = getelementptr inbounds nuw %struct.lzma_stream_coder, ptr %73, i32 0, i32 7
  %75 = zext i1 %72 to i8
  store i8 %75, ptr %74, align 8, !tbaa !31
  %76 = load i32, ptr %9, align 4, !tbaa !12
  %77 = and i32 %76, 2
  %78 = icmp ne i32 %77, 0
  %79 = load ptr, ptr %10, align 8, !tbaa !9
  %80 = getelementptr inbounds nuw %struct.lzma_stream_coder, ptr %79, i32 0, i32 8
  %81 = zext i1 %78 to i8
  store i8 %81, ptr %80, align 1, !tbaa !32
  %82 = load i32, ptr %9, align 4, !tbaa !12
  %83 = and i32 %82, 4
  %84 = icmp ne i32 %83, 0
  %85 = load ptr, ptr %10, align 8, !tbaa !9
  %86 = getelementptr inbounds nuw %struct.lzma_stream_coder, ptr %85, i32 0, i32 9
  %87 = zext i1 %84 to i8
  store i8 %87, ptr %86, align 2, !tbaa !33
  %88 = load i32, ptr %9, align 4, !tbaa !12
  %89 = and i32 %88, 16
  %90 = icmp ne i32 %89, 0
  %91 = load ptr, ptr %10, align 8, !tbaa !9
  %92 = getelementptr inbounds nuw %struct.lzma_stream_coder, ptr %91, i32 0, i32 10
  %93 = zext i1 %90 to i8
  store i8 %93, ptr %92, align 1, !tbaa !34
  %94 = load i32, ptr %9, align 4, !tbaa !12
  %95 = and i32 %94, 8
  %96 = icmp ne i32 %95, 0
  %97 = load ptr, ptr %10, align 8, !tbaa !9
  %98 = getelementptr inbounds nuw %struct.lzma_stream_coder, ptr %97, i32 0, i32 11
  %99 = zext i1 %96 to i8
  store i8 %99, ptr %98, align 4, !tbaa !35
  %100 = load ptr, ptr %10, align 8, !tbaa !9
  %101 = getelementptr inbounds nuw %struct.lzma_stream_coder, ptr %100, i32 0, i32 12
  store i8 1, ptr %101, align 1, !tbaa !36
  %102 = load ptr, ptr %10, align 8, !tbaa !9
  %103 = load ptr, ptr %7, align 8, !tbaa !9
  %104 = call i32 @stream_decoder_reset(ptr noundef %102, ptr noundef %103)
  store i32 %104, ptr %5, align 4
  store i32 1, ptr %11, align 4
  br label %105

105:                                              ; preds = %64, %40
  call void @llvm.lifetime.end.p0(i64 8, ptr %10) #8
  br label %106

106:                                              ; preds = %105, %28
  %107 = load i32, ptr %5, align 4
  ret i32 %107
}