; Function Attrs: nounwind uwtable
define dso_local range(i32 0, 9) i32 @lzma_stream_decoder_init(ptr noundef %0, ptr noundef %1, i64 noundef %2, i32 noundef %3) #0 {
  %5 = getelementptr inbounds nuw i8, ptr %0, i64 16
  %6 = load i64, ptr %5, align 8, !tbaa !4
  %.not = icmp eq i64 %6, ptrtoint (ptr @lzma_stream_decoder_init to i64)
  br i1 %.not, label %8, label %7

7:                                                ; preds = %4
  tail call void @lzma_next_end(ptr noundef nonnull %0, ptr noundef %1) #10
  br label %8

8:                                                ; preds = %7, %4
  store i64 ptrtoint (ptr @lzma_stream_decoder_init to i64), ptr %5, align 8, !tbaa !4
  %.not37 = icmp ult i32 %3, 64
  br i1 %.not37, label %9, label %stream_decoder_reset.exit

9:                                                ; preds = %8
  %10 = load ptr, ptr %0, align 8, !tbaa !10
  %11 = icmp eq ptr %10, null
  br i1 %11, label %12, label %._crit_edge

._crit_edge:                                      ; preds = %9
  %.phi.trans.insert = getelementptr inbounds nuw i8, ptr %10, i64 352
  %.pre = load ptr, ptr %.phi.trans.insert, align 8, !tbaa !11
  br label %22

12:                                               ; preds = %9
  %13 = tail call ptr @lzma_alloc(i64 noundef 1416, ptr noundef %1) #10
  %14 = icmp eq ptr %13, null
  br i1 %14, label %stream_decoder_reset.exit, label %15

15:                                               ; preds = %12
  store ptr %13, ptr %0, align 8, !tbaa !10
  %16 = getelementptr inbounds nuw i8, ptr %0, i64 24
  store ptr @stream_decode, ptr %16, align 8, !tbaa !18
  %17 = getelementptr inbounds nuw i8, ptr %0, i64 32
  store ptr @stream_decoder_end, ptr %17, align 8, !tbaa !19
  %18 = getelementptr inbounds nuw i8, ptr %0, i64 48
  store ptr @stream_decoder_get_check, ptr %18, align 8, !tbaa !20
  %19 = getelementptr inbounds nuw i8, ptr %0, i64 56
  store ptr @stream_decoder_memconfig, ptr %19, align 8, !tbaa !21
  %20 = getelementptr inbounds nuw i8, ptr %13, i64 8
  store ptr null, ptr %20, align 8, !tbaa !22
  %.sroa.2.0..sroa_idx = getelementptr inbounds nuw i8, ptr %13, i64 16
  store i64 -1, ptr %.sroa.2.0..sroa_idx, align 8, !tbaa !23
  %.sroa.3.0..sroa_idx = getelementptr inbounds nuw i8, ptr %13, i64 24
  tail call void @llvm.memset.p0.i64(ptr noundef nonnull align 8 dereferenceable(64) %.sroa.3.0..sroa_idx, i8 0, i64 64, i1 false)
  %21 = getelementptr inbounds nuw i8, ptr %13, i64 352
  store ptr null, ptr %21, align 8, !tbaa !11
  br label %22

22:                                               ; preds = %._crit_edge, %15
  %23 = phi ptr [ null, %15 ], [ %.pre, %._crit_edge ]
  %.034 = phi ptr [ %13, %15 ], [ %10, %._crit_edge ]
  %24 = tail call i64 @llvm.umax.i64(i64 %2, i64 1)
  %25 = getelementptr inbounds nuw i8, ptr %.034, i64 360
  store i64 %24, ptr %25, align 8, !tbaa !24
  %26 = getelementptr inbounds nuw i8, ptr %.034, i64 368
  store i64 32768, ptr %26, align 8, !tbaa !25
  %27 = getelementptr inbounds nuw i8, ptr %.034, i64 376
  %28 = trunc nuw i32 %3 to i8
  %29 = and i8 %28, 1
  store i8 %29, ptr %27, align 8, !tbaa !26
  %30 = getelementptr inbounds nuw i8, ptr %.034, i64 377
  %31 = lshr i8 %28, 1
  %32 = and i8 %31, 1
  store i8 %32, ptr %30, align 1, !tbaa !27
  %33 = getelementptr inbounds nuw i8, ptr %.034, i64 378
  %34 = lshr i8 %28, 2
  %35 = and i8 %34, 1
  store i8 %35, ptr %33, align 2, !tbaa !28
  %36 = getelementptr inbounds nuw i8, ptr %.034, i64 379
  %37 = lshr i8 %28, 4
  %38 = and i8 %37, 1
  store i8 %38, ptr %36, align 1, !tbaa !29
  %39 = getelementptr inbounds nuw i8, ptr %.034, i64 380
  %40 = lshr i8 %28, 3
  %41 = and i8 %40, 1
  store i8 %41, ptr %39, align 4, !tbaa !30
  %42 = getelementptr inbounds nuw i8, ptr %.034, i64 381
  store i8 1, ptr %42, align 1, !tbaa !31
  %43 = getelementptr inbounds nuw i8, ptr %.034, i64 352
  %44 = tail call ptr @lzma_index_hash_init(ptr noundef %23, ptr noundef %1) #10
  store ptr %44, ptr %43, align 8, !tbaa !11
  %45 = icmp eq ptr %44, null
  br i1 %45, label %stream_decoder_reset.exit, label %46

46:                                               ; preds = %22
  store i32 0, ptr %.034, align 8, !tbaa !32
  %47 = getelementptr inbounds nuw i8, ptr %.034, i64 384
  store i64 0, ptr %47, align 8, !tbaa !33
  br label %stream_decoder_reset.exit

stream_decoder_reset.exit:                        ; preds = %46, %22, %12, %8
  %.0 = phi i32 [ 8, %8 ], [ 5, %12 ], [ 0, %46 ], [ 5, %22 ]
  ret i32 %.0
}